target datalayout = "e-m:e-p270:32:32-p271:32:32-p272:64:64-i64:64-i128:128-f80:128-n8:16:32:64-S128"
target triple = "x86_64-pc-linux-gnu"

%struct.Aes = type { [60 x i32], i32, i32, [8 x i8], [4 x i32], [4 x i32], [2 x i32], i32, [4 x i8], %struct.Gcm, ptr, [8 x i8] }
%struct.Gcm = type { [16 x i8], [32 x [16 x i8]] }

; Function Attrs: inlinehint nounwind uwtable
define internal i32 @CheckAesGcmIvSize(i32 noundef %0) #4 {
  %2 = alloca i32, align 4
  store i32 %0, ptr %2, align 4, !tbaa !10
  %3 = load i32, ptr %2, align 4, !tbaa !10
  %4 = icmp eq i32 %3, 8
  br i1 %4, label %11, label %5

5:                                                ; preds = %1
  %6 = load i32, ptr %2, align 4, !tbaa !10
  %7 = icmp eq i32 %6, 12
  br i1 %7, label %11, label %8

8:                                                ; preds = %5
  %9 = load i32, ptr %2, align 4, !tbaa !10
  %10 = icmp eq i32 %9, 16
  br label %11

11:                                               ; preds = %8, %5, %1
  %12 = phi i1 [ true, %5 ], [ true, %1 ], [ %10, %8 ]
  %13 = zext i1 %12 to i32
  ret i32 %13
}

; Function Attrs: nounwind uwtable
define i32 @wc_AesGcmSetExtIV(ptr noundef %0, ptr noundef %1, i32 noundef %2) #0 {
  %4 = alloca ptr, align 8
  %5 = alloca ptr, align 8
  %6 = alloca i32, align 4
  %7 = alloca i32, align 4
  store ptr %0, ptr %4, align 8, !tbaa !3
  store ptr %1, ptr %5, align 8, !tbaa !8
  store i32 %2, ptr %6, align 4, !tbaa !10
  call void @llvm.lifetime.start.p0(i64 4, ptr %7) #6
  store i32 0, ptr %7, align 4, !tbaa !10
  %8 = load ptr, ptr %4, align 8, !tbaa !3
  %9 = icmp eq ptr %8, null
  br i1 %9, label %17, label %10

10:                                               ; preds = %3
  %11 = load ptr, ptr %5, align 8, !tbaa !8
  %12 = icmp eq ptr %11, null
  br i1 %12, label %17, label %13

13:                                               ; preds = %10
  %14 = load i32, ptr %6, align 4, !tbaa !10
  %15 = call i32 @CheckAesGcmIvSize(i32 noundef %14)
  %16 = icmp ne i32 %15, 0
  br i1 %16, label %18, label %17

17:                                               ; preds = %13, %10, %3
  store i32 -173, ptr %7, align 4, !tbaa !10
  br label %18

18:                                               ; preds = %17, %13
  %19 = load i32, ptr %7, align 4, !tbaa !10
  %20 = icmp eq i32 %19, 0
  br i1 %20, label %21, label %40

21:                                               ; preds = %18
  %22 = load ptr, ptr %4, align 8, !tbaa !3
  %23 = getelementptr inbounds nuw %struct.Aes, ptr %22, i32 0, i32 4
  %24 = getelementptr inbounds [4 x i32], ptr %23, i64 0, i64 0
  %25 = load ptr, ptr %5, align 8, !tbaa !8
  %26 = load i32, ptr %6, align 4, !tbaa !10
  %27 = zext i32 %26 to i64
  call void @llvm.memcpy.p0.p0.i64(ptr align 16 %24, ptr align 1 %25, i64 %27, i1 false)
  %28 = load ptr, ptr %4, align 8, !tbaa !3
  %29 = getelementptr inbounds nuw %struct.Aes, ptr %28, i32 0, i32 6
  %30 = getelementptr inbounds [2 x i32], ptr %29, i64 0, i64 0
  store i32 0, ptr %30, align 16, !tbaa !10
  %31 = load i32, ptr %6, align 4, !tbaa !10
  %32 = icmp eq i32 %31, 12
  %33 = select i1 %32, i32 0, i32 -1
  %34 = load ptr, ptr %4, align 8, !tbaa !3
  %35 = getelementptr inbounds nuw %struct.Aes, ptr %34, i32 0, i32 6
  %36 = getelementptr inbounds [2 x i32], ptr %35, i64 0, i64 1
  store i32 %33, ptr %36, align 4, !tbaa !10
  %37 = load i32, ptr %6, align 4, !tbaa !10
  %38 = load ptr, ptr %4, align 8, !tbaa !3
  %39 = getelementptr inbounds nuw %struct.Aes, ptr %38, i32 0, i32 7
  store i32 %37, ptr %39, align 8, !tbaa !39
  br label %40

40:                                               ; preds = %21, %18
  %41 = load i32, ptr %7, align 4, !tbaa !10
  call void @llvm.lifetime.end.p0(i64 4, ptr %7) #6
  ret i32 %41
}