; Function Attrs: mustprogress nofree norecurse nosync nounwind willreturn memory(argmem: readwrite) uwtable
define range(i32 -173, 1) i32 @wc_AesGcmSetExtIV(ptr noundef writeonly captures(address_is_null) %0, ptr noundef readonly captures(address_is_null) %1, i32 noundef %2) local_unnamed_addr #1 {
  %4 = icmp eq ptr %0, null
  %5 = icmp eq ptr %1, null
  %or.cond = or i1 %4, %5
  br i1 %or.cond, label %15, label %6

6:                                                ; preds = %3
  switch i32 %2, label %15 [
    i32 16, label %7
    i32 12, label %7
    i32 8, label %7
  ]

7:                                                ; preds = %6, %6, %6
  %8 = getelementptr inbounds nuw i8, ptr %0, i64 256
  %9 = zext nneg i32 %2 to i64
  tail call void @llvm.memcpy.p0.p0.i64(ptr nonnull align 16 %8, ptr nonnull align 1 %1, i64 %9, i1 false)
  %10 = getelementptr inbounds nuw i8, ptr %0, i64 288
  store i32 0, ptr %10, align 16, !tbaa !11
  %11 = icmp ne i32 %2, 12
  %12 = sext i1 %11 to i32
  %13 = getelementptr inbounds nuw i8, ptr %0, i64 292
  store i32 %12, ptr %13, align 4, !tbaa !11
  %14 = getelementptr inbounds nuw i8, ptr %0, i64 296
  store i32 %2, ptr %14, align 8, !tbaa !42
  br label %15

15:                                               ; preds = %6, %3, %7
  %.014 = phi i32 [ 0, %7 ], [ -173, %3 ], [ -173, %6 ]
  ret i32 %.014
}